target datalayout = "e-m:e-p270:32:32-p271:32:32-p272:64:64-i64:64-i128:128-f80:128-n8:16:32:64-S128"
target triple = "x86_64-pc-linux-gnu"

%struct.pairingheap_node = type { ptr, ptr, ptr }
%struct.SnapshotData = type { i32, i32, i32, ptr, i32, ptr, i32, i8, i8, i8, i32, i32, ptr, i32, i32, %struct.pairingheap_node, i64 }

; Function Attrs: nounwind uwtable
define internal i32 @xmin_cmp(ptr noundef %0, ptr noundef %1, ptr noundef %2) #0 {
  %4 = alloca i32, align 4
  %5 = alloca ptr, align 8
  %6 = alloca ptr, align 8
  %7 = alloca ptr, align 8
  %8 = alloca ptr, align 8
  %9 = alloca i32, align 4
  %10 = alloca i32, align 4
  %11 = alloca ptr, align 8
  %12 = alloca i32, align 4
  %13 = alloca i32, align 4
  %14 = alloca i32, align 4
  store ptr %0, ptr %5, align 8
  store ptr %1, ptr %6, align 8
  store ptr %2, ptr %7, align 8
  call void @llvm.lifetime.start.p0(i64 8, ptr %8) #14
  br label %15

15:                                               ; preds = %3
  br label %16

16:                                               ; preds = %15
  br label %17

17:                                               ; preds = %16
  store i32 1, ptr %9, align 4
  br label %18

18:                                               ; preds = %17
  br label %19

19:                                               ; preds = %18
  br label %20

20:                                               ; preds = %19
  store i32 1, ptr %10, align 4
  %21 = load ptr, ptr %5, align 8
  %22 = getelementptr inbounds i8, ptr %21, i64 -72
  store ptr %22, ptr %8, align 8
  call void @llvm.lifetime.start.p0(i64 8, ptr %11) #14
  br label %23

23:                                               ; preds = %20
  br label %24

24:                                               ; preds = %23
  br label %25

25:                                               ; preds = %24
  store i32 1, ptr %12, align 4
  br label %26

26:                                               ; preds = %25
  br label %27

27:                                               ; preds = %26
  br label %28

28:                                               ; preds = %27
  store i32 1, ptr %13, align 4
  %29 = load ptr, ptr %6, align 8
  %30 = getelementptr inbounds i8, ptr %29, i64 -72
  store ptr %30, ptr %11, align 8
  %31 = load ptr, ptr %8, align 8
  %32 = getelementptr inbounds nuw %struct.SnapshotData, ptr %31, i32 0, i32 1
  %33 = load i32, ptr %32, align 4
  %34 = load ptr, ptr %11, align 8
  %35 = getelementptr inbounds nuw %struct.SnapshotData, ptr %34, i32 0, i32 1
  %36 = load i32, ptr %35, align 4
  %37 = call zeroext i1 @TransactionIdPrecedes(i32 noundef %33, i32 noundef %36)
  br i1 %37, label %38, label %39

38:                                               ; preds = %28
  store i32 1, ptr %4, align 4
  store i32 1, ptr %14, align 4
  br label %49

39:                                               ; preds = %28
  %40 = load ptr, ptr %8, align 8
  %41 = getelementptr inbounds nuw %struct.SnapshotData, ptr %40, i32 0, i32 1
  %42 = load i32, ptr %41, align 4
  %43 = load ptr, ptr %11, align 8
  %44 = getelementptr inbounds nuw %struct.SnapshotData, ptr %43, i32 0, i32 1
  %45 = load i32, ptr %44, align 4
  %46 = call zeroext i1 @TransactionIdFollows(i32 noundef %42, i32 noundef %45)
  br i1 %46, label %47, label %48

47:                                               ; preds = %39
  store i32 -1, ptr %4, align 4
  store i32 1, ptr %14, align 4
  br label %49

48:                                               ; preds = %39
  store i32 0, ptr %4, align 4
  store i32 1, ptr %14, align 4
  br label %49

49:                                               ; preds = %48, %47, %38
  call void @llvm.lifetime.end.p0(i64 8, ptr %11) #14
  call void @llvm.lifetime.end.p0(i64 8, ptr %8) #14
  %50 = load i32, ptr %4, align 4
  ret i32 %50
}