; Function Attrs: nounwind uwtable
define internal range(i32 -1, 2) i32 @xmin_cmp(ptr noundef readonly captures(none) %0, ptr noundef readonly captures(none) %1, ptr readnone captures(none) %2) #0 {
  %4 = getelementptr inbounds i8, ptr %0, i64 -68
  %5 = load i32, ptr %4, align 4
  %6 = getelementptr inbounds i8, ptr %1, i64 -68
  %7 = load i32, ptr %6, align 4
  %8 = tail call zeroext i1 @TransactionIdPrecedes(i32 noundef %5, i32 noundef %7) #18
  br i1 %8, label %13, label %9

9:                                                ; preds = %3
  %10 = load i32, ptr %4, align 4
  %11 = load i32, ptr %6, align 4
  %12 = tail call zeroext i1 @TransactionIdFollows(i32 noundef %10, i32 noundef %11) #18
  %. = sext i1 %12 to i32
  br label %13

13:                                               ; preds = %9, %3
  %.0 = phi i32 [ 1, %3 ], [ %., %9 ]
  ret i32 %.0
}